target datalayout = "e-m:e-p270:32:32-p271:32:32-p272:64:64-i64:64-i128:128-f80:128-n8:16:32:64-S128"
target triple = "x86_64-pc-linux-gnu"

@ett_snmp = internal global i32 0, align 4
@proto_snmp = internal global i32 0, align 4

; Function Attrs: nounwind uwtable
define internal i32 @dissect_snmp_tcp(ptr noundef %0, ptr noundef %1, ptr noundef %2, ptr noundef %3) #0 {
  %5 = alloca ptr, align 8
  %6 = alloca ptr, align 8
  %7 = alloca ptr, align 8
  %8 = alloca ptr, align 8
  %9 = alloca i32, align 4
  %10 = alloca i32, align 4
  store ptr %0, ptr %5, align 8
  store ptr %1, ptr %6, align 8
  store ptr %2, ptr %7, align 8
  store ptr %3, ptr %8, align 8
  store i32 0, ptr %9, align 4
  br label %11

11:                                               ; preds = %27, %4
  %12 = load ptr, ptr %5, align 8
  %13 = load i32, ptr %9, align 4
  %14 = call i32 @tvb_reported_length_remaining(ptr noundef %12, i32 noundef %13)
  %15 = icmp sgt i32 %14, 0
  br i1 %15, label %16, label %31

16:                                               ; preds = %11
  %17 = load ptr, ptr %5, align 8
  %18 = load i32, ptr %9, align 4
  %19 = load ptr, ptr %6, align 8
  %20 = load ptr, ptr %7, align 8
  %21 = load i32, ptr @proto_snmp, align 4
  %22 = load i32, ptr @ett_snmp, align 4
  %23 = call i32 @dissect_snmp_pdu(ptr noundef %17, i32 noundef %18, ptr noundef %19, ptr noundef %20, i32 noundef %21, i32 noundef %22, i32 noundef 1)
  store i32 %23, ptr %10, align 4
  %24 = load i32, ptr %10, align 4
  %25 = icmp eq i32 %24, 0
  br i1 %25, label %26, label %27

26:                                               ; preds = %16
  br label %31

27:                                               ; preds = %16
  %28 = load i32, ptr %10, align 4
  %29 = load i32, ptr %9, align 4
  %30 = add i32 %29, %28
  store i32 %30, ptr %9, align 4
  br label %11, !llvm.loop !10

31:                                               ; preds = %26, %11
  %32 = load ptr, ptr %5, align 8
  %33 = call i32 @tvb_captured_length(ptr noundef %32)
  ret i32 %33
}