; Function Attrs: nounwind uwtable
define internal i32 @dissect_snmp_tcp(ptr noundef %0, ptr noundef %1, ptr noundef %2, ptr readnone captures(none) %3) #0 {
  %5 = tail call i32 @tvb_reported_length_remaining(ptr noundef %0, i32 noundef 0) #11
  %6 = icmp sgt i32 %5, 0
  br i1 %6, label %.lr.ph, label %._crit_edge

7:                                                ; preds = %.lr.ph
  %8 = add i32 %13, %.010
  %9 = tail call i32 @tvb_reported_length_remaining(ptr noundef %0, i32 noundef %8) #11
  %10 = icmp sgt i32 %9, 0
  br i1 %10, label %.lr.ph, label %._crit_edge, !llvm.loop !10

.lr.ph:                                           ; preds = %4, %7
  %.010 = phi i32 [ %8, %7 ], [ 0, %4 ]
  %11 = load i32, ptr @proto_snmp, align 4
  %12 = load i32, ptr @ett_snmp, align 4
  %13 = tail call i32 @dissect_snmp_pdu(ptr noundef %0, i32 noundef %.010, ptr noundef %1, ptr noundef %2, i32 noundef %11, i32 noundef %12, i32 noundef 1)
  %14 = icmp eq i32 %13, 0
  br i1 %14, label %._crit_edge, label %7

._crit_edge:                                      ; preds = %7, %.lr.ph, %4
  %15 = tail call i32 @tvb_captured_length(ptr noundef %0) #11
  ret i32 %15
}